; Function Attrs: mustprogress nounwind uwtable
define void @_ZN2cv10BOWTrainerD2Ev(ptr nocapture noundef nonnull align 8 dereferenceable(36) %0) unnamed_addr #1 align 2 personality ptr @__gxx_personality_v0 {
  store ptr getelementptr inbounds inrange(-16, 40) (i8, ptr @_ZTVN2cv10BOWTrainerE, i64 16), ptr %0, align 8
  %2 = getelementptr inbounds i8, ptr %0, i64 8
  %3 = load ptr, ptr %2, align 8
  %4 = getelementptr inbounds i8, ptr %0, i64 16
  %5 = load ptr, ptr %4, align 8
  %.not4.i.i.i.i = icmp eq ptr %3, %5
  br i1 %.not4.i.i.i.i, label %_ZSt8_DestroyIPN2cv3MatES1_EvT_S3_RSaIT0_E.exit.i, label %.lr.ph.i.i.i.i

.lr.ph.i.i.i.i:                                   ; preds = %1, %.lr.ph.i.i.i.i
  %.05.i.i.i.i = phi ptr [ %6, %.lr.ph.i.i.i.i ], [ %3, %1 ]
  tail call void @_ZN2cv3MatD1Ev(ptr noundef nonnull align 8 dereferenceable(96) %.05.i.i.i.i) #20
  %6 = getelementptr inbounds i8, ptr %.05.i.i.i.i, i64 96
  %.not.i.i.i.i = icmp eq ptr %6, %5
  br i1 %.not.i.i.i.i, label %_ZSt8_DestroyIPN2cv3MatES1_EvT_S3_RSaIT0_E.exitthread-pre-split.i, label %.lr.ph.i.i.i.i, !llvm.loop !4

_ZSt8_DestroyIPN2cv3MatES1_EvT_S3_RSaIT0_E.exitthread-pre-split.i: ; preds = %.lr.ph.i.i.i.i
  %.pr.i = load ptr, ptr %2, align 8
  br label %_ZSt8_DestroyIPN2cv3MatES1_EvT_S3_RSaIT0_E.exit.i

_ZSt8_DestroyIPN2cv3MatES1_EvT_S3_RSaIT0_E.exit.i: ; preds = %_ZSt8_DestroyIPN2cv3MatES1_EvT_S3_RSaIT0_E.exitthread-pre-split.i, %1
  %7 = phi ptr [ %.pr.i, %_ZSt8_DestroyIPN2cv3MatES1_EvT_S3_RSaIT0_E.exitthread-pre-split.i ], [ %3, %1 ]
  %.not.i.i.i = icmp eq ptr %7, null
  br i1 %.not.i.i.i, label %_ZNSt6vectorIN2cv3MatESaIS1_EED2Ev.exit, label %8

8:                                                ; preds = %_ZSt8_DestroyIPN2cv3MatES1_EvT_S3_RSaIT0_E.exit.i
  tail call void @_ZdlPv(ptr noundef nonnull %7) #21
  br label %_ZNSt6vectorIN2cv3MatESaIS1_EED2Ev.exit

_ZNSt6vectorIN2cv3MatESaIS1_EED2Ev.exit:          ; preds = %_ZSt8_DestroyIPN2cv3MatES1_EvT_S3_RSaIT0_E.exit.i, %8
  ret void
}